target datalayout = "e-m:e-p270:32:32-p271:32:32-p272:64:64-i64:64-i128:128-f80:128-n8:16:32:64-S128"
target triple = "x86_64-pc-linux-gnu"

%class.HotSpotCompiledCodeStream = type { ptr, ptr, ptr, i8, %class.objArrayHandle, ptr, ptr, ptr }
%class.objArrayHandle = type { %class.Handle }
%class.Handle = type { ptr }
%"class.HotSpotCompiledCodeStream::Chunk" = type <{ ptr, i32, [4 x i8] }>
%class.CodeInstaller = type <{ %class.Arena, ptr, i32, %class.CodeOffsets, i32, i32, i32, i32, i32, i32, i8, i8, [2 x i8], i32, [4 x i8], ptr, ptr, ptr, ptr, ptr, ptr, %class.ExceptionHandlerTable, %class.ImplicitExceptionTable, i8, [7 x i8] }>
%class.Arena = type { i8, i8, i64, ptr, ptr, ptr, ptr }
%class.CodeOffsets = type { [8 x i32] }
%class.ExceptionHandlerTable = type <{ ptr, i32, i32, %class.ReallocMark, [7 x i8] }>
%class.ReallocMark = type { i8 }
%class.ImplicitExceptionTable = type <{ i32, i32, ptr, %class.ReallocMark, [7 x i8] }>

@.str = private unnamed_addr constant [47 x i8] c"src/hotspot/share/jvmci/jvmciCodeInstaller.cpp\00", align 1
@tty = external global ptr, align 8
@g_assert_poison = external global ptr, align 8
@.str.17 = private unnamed_addr constant [50 x i8] c"%s: reading %d bytes overflows buffer at 0x%016lx\00", align 1
@.str.123 = private unnamed_addr constant [16 x i8] c"debugInfo:flags\00", align 1
@.str.124 = private unnamed_addr constant [56 x i8] c"method contains safepoint, but has no deopt rescue slot\00", align 1
@.str.125 = private unnamed_addr constant [15 x i8] c"dispatchOffset\00", align 1

; Function Attrs: mustprogress nounwind uwtable
define linkonce_odr hidden noundef ptr @_ZNK25HotSpotCompiledCodeStream5Chunk4dataEv(ptr noundef nonnull align 8 dereferenceable(12) %0) #1 comdat align 2 {
  %2 = alloca ptr, align 8
  store ptr %0, ptr %2, align 8
  %3 = load ptr, ptr %2, align 8
  %4 = getelementptr inbounds i8, ptr %3, i64 12
  ret ptr %4
}

; Function Attrs: mustprogress nounwind uwtable
define linkonce_odr hidden noundef i64 @_Z3p2iPVKv(ptr noundef %0) #1 comdat {
  %2 = alloca ptr, align 8
  store ptr %0, ptr %2, align 8
  %3 = load ptr, ptr %2, align 8
  %4 = ptrtoint ptr %3 to i64
  ret i64 %4
}

; Function Attrs: mustprogress nounwind uwtable
define linkonce_odr hidden noundef ptr @_ZNK25HotSpotCompiledCodeStream9code_descEv(ptr noundef nonnull align 8 dereferenceable(64) %0) #1 comdat align 2 {
  %2 = alloca ptr, align 8
  store ptr %0, ptr %2, align 8
  %3 = load ptr, ptr %2, align 8
  %4 = getelementptr inbounds %class.HotSpotCompiledCodeStream, ptr %3, i32 0, i32 7
  %5 = load ptr, ptr %4, align 8
  ret ptr %5
}

; Function Attrs: mustprogress nounwind uwtable
define linkonce_odr hidden noundef i32 @_ZNK25HotSpotCompiledCodeStream5Chunk4sizeEv(ptr noundef nonnull align 8 dereferenceable(12) %0) #1 comdat align 2 {
  %2 = alloca ptr, align 8
  store ptr %0, ptr %2, align 8
  %3 = load ptr, ptr %2, align 8
  %4 = getelementptr inbounds %"class.HotSpotCompiledCodeStream::Chunk", ptr %3, i32 0, i32 1
  %5 = load i32, ptr %4, align 8
  ret i32 %5
}

; Function Attrs: mustprogress nounwind uwtable
define linkonce_odr hidden noundef ptr @_ZNK25HotSpotCompiledCodeStream5Chunk4nextEv(ptr noundef nonnull align 8 dereferenceable(12) %0) #1 comdat align 2 {
  %2 = alloca ptr, align 8
  store ptr %0, ptr %2, align 8
  %3 = load ptr, ptr %2, align 8
  %4 = getelementptr inbounds %"class.HotSpotCompiledCodeStream::Chunk", ptr %3, i32 0, i32 0
  %5 = load ptr, ptr %4, align 8
  ret ptr %5
}

; Function Attrs: mustprogress nounwind uwtable
define linkonce_odr hidden noundef ptr @_ZNK25HotSpotCompiledCodeStream5Chunk8data_endEv(ptr noundef nonnull align 8 dereferenceable(12) %0) #1 comdat align 2 {
  %2 = alloca ptr, align 8
  store ptr %0, ptr %2, align 8
  %3 = load ptr, ptr %2, align 8
  %4 = call noundef ptr @_ZNK25HotSpotCompiledCodeStream5Chunk4dataEv(ptr noundef nonnull align 8 dereferenceable(12) %3)
  %5 = getelementptr inbounds %"class.HotSpotCompiledCodeStream::Chunk", ptr %3, i32 0, i32 1
  %6 = load i32, ptr %5, align 8
  %7 = zext i32 %6 to i64
  %8 = getelementptr inbounds i8, ptr %4, i64 %7
  ret ptr %8
}

; Function Attrs: mustprogress nounwind uwtable
define hidden void @_ZN25HotSpotCompiledCodeStream11before_readEh(ptr noundef nonnull align 8 dereferenceable(64) %0, i8 noundef zeroext %1) #1 align 2 {
  %3 = alloca ptr, align 8
  %4 = alloca i8, align 1
  %5 = alloca ptr, align 8
  store ptr %0, ptr %3, align 8
  store i8 %1, ptr %4, align 1
  %6 = load ptr, ptr %3, align 8
  %7 = getelementptr inbounds %class.HotSpotCompiledCodeStream, ptr %6, i32 0, i32 2
  %8 = load ptr, ptr %7, align 8
  %9 = load i8, ptr %4, align 1
  %10 = zext i8 %9 to i32
  %11 = sext i32 %10 to i64
  %12 = getelementptr inbounds i8, ptr %8, i64 %11
  %13 = getelementptr inbounds %class.HotSpotCompiledCodeStream, ptr %6, i32 0, i32 1
  %14 = load ptr, ptr %13, align 8
  %15 = call noundef ptr @_ZNK25HotSpotCompiledCodeStream5Chunk8data_endEv(ptr noundef nonnull align 8 dereferenceable(12) %14)
  %16 = icmp ugt ptr %12, %15
  br i1 %16, label %17, label %47

17:                                               ; preds = %2
  %18 = getelementptr inbounds %class.HotSpotCompiledCodeStream, ptr %6, i32 0, i32 1
  %19 = load ptr, ptr %18, align 8
  %20 = call noundef ptr @_ZNK25HotSpotCompiledCodeStream5Chunk4nextEv(ptr noundef nonnull align 8 dereferenceable(12) %19)
  store ptr %20, ptr %5, align 8
  %21 = load ptr, ptr %5, align 8
  %22 = icmp eq ptr %21, null
  br i1 %22, label %29, label %23

23:                                               ; preds = %17
  %24 = load i8, ptr %4, align 1
  %25 = zext i8 %24 to i32
  %26 = load ptr, ptr %5, align 8
  %27 = call noundef i32 @_ZNK25HotSpotCompiledCodeStream5Chunk4sizeEv(ptr noundef nonnull align 8 dereferenceable(12) %26)
  %28 = icmp ugt i32 %25, %27
  br i1 %28, label %29, label %40

29:                                               ; preds = %23, %17
  %30 = load ptr, ptr @tty, align 8
  call void @_ZNK25HotSpotCompiledCodeStream11dump_bufferEP12outputStream(ptr noundef nonnull align 8 dereferenceable(64) %6, ptr noundef %30)
  br label %31

31:                                               ; preds = %29
  %32 = load ptr, ptr @g_assert_poison, align 8
  store i8 88, ptr %32, align 1
  %33 = call noundef ptr @_ZNK25HotSpotCompiledCodeStream9code_descEv(ptr noundef nonnull align 8 dereferenceable(64) %6)
  %34 = load i8, ptr %4, align 1
  %35 = zext i8 %34 to i32
  %36 = getelementptr inbounds %class.HotSpotCompiledCodeStream, ptr %6, i32 0, i32 2
  %37 = load ptr, ptr %36, align 8
  %38 = call noundef i64 @_Z3p2iPVKv(ptr noundef %37)
  call void (i32, ptr, i32, ptr, ...) @_Z12report_fatal11VMErrorTypePKciS1_z(i32 noundef -536870912, ptr noundef @.str, i32 noundef 139, ptr noundef @.str.17, ptr noundef %33, i32 noundef %35, i64 noundef %38) #12
  unreachable

39:                                               ; No predecessors!
  br label %40

40:                                               ; preds = %39, %23
  %41 = load ptr, ptr %5, align 8
  %42 = getelementptr inbounds %class.HotSpotCompiledCodeStream, ptr %6, i32 0, i32 1
  store ptr %41, ptr %42, align 8
  %43 = getelementptr inbounds %class.HotSpotCompiledCodeStream, ptr %6, i32 0, i32 1
  %44 = load ptr, ptr %43, align 8
  %45 = call noundef ptr @_ZNK25HotSpotCompiledCodeStream5Chunk4dataEv(ptr noundef nonnull align 8 dereferenceable(12) %44)
  %46 = getelementptr inbounds %class.HotSpotCompiledCodeStream, ptr %6, i32 0, i32 2
  store ptr %45, ptr %46, align 8
  br label %47

47:                                               ; preds = %40, %2
  ret void
}

; Function Attrs: mustprogress nounwind uwtable
define linkonce_odr hidden noundef i32 @_ZN25HotSpotCompiledCodeStream6get_u4Ev(ptr noundef nonnull align 8 dereferenceable(64) %0) #1 comdat align 2 {
  %2 = alloca ptr, align 8
  %3 = alloca i32, align 4
  store ptr %0, ptr %2, align 8
  %4 = load ptr, ptr %2, align 8
  call void @_ZN25HotSpotCompiledCodeStream11before_readEh(ptr noundef nonnull align 8 dereferenceable(64) %4, i8 noundef zeroext 4)
  %5 = getelementptr inbounds %class.HotSpotCompiledCodeStream, ptr %4, i32 0, i32 2
  %6 = load ptr, ptr %5, align 8
  %7 = load i32, ptr %6, align 4
  store i32 %7, ptr %3, align 4
  %8 = getelementptr inbounds %class.HotSpotCompiledCodeStream, ptr %4, i32 0, i32 2
  %9 = load ptr, ptr %8, align 8
  %10 = getelementptr inbounds i8, ptr %9, i64 4
  store ptr %10, ptr %8, align 8
  %11 = load i32, ptr %3, align 4
  ret i32 %11
}

; Function Attrs: mustprogress nounwind uwtable
define linkonce_odr hidden noundef zeroext i8 @_ZN25HotSpotCompiledCodeStream6get_u1Ev(ptr noundef nonnull align 8 dereferenceable(64) %0) #1 comdat align 2 {
  %2 = alloca ptr, align 8
  %3 = alloca i8, align 1
  store ptr %0, ptr %2, align 8
  %4 = load ptr, ptr %2, align 8
  call void @_ZN25HotSpotCompiledCodeStream11before_readEh(ptr noundef nonnull align 8 dereferenceable(64) %4, i8 noundef zeroext 1)
  %5 = getelementptr inbounds %class.HotSpotCompiledCodeStream, ptr %4, i32 0, i32 2
  %6 = load ptr, ptr %5, align 8
  %7 = load i8, ptr %6, align 1
  store i8 %7, ptr %3, align 1
  %8 = getelementptr inbounds %class.HotSpotCompiledCodeStream, ptr %4, i32 0, i32 2
  %9 = load ptr, ptr %8, align 8
  %10 = getelementptr inbounds i8, ptr %9, i64 1
  store ptr %10, ptr %8, align 8
  %11 = load i8, ptr %3, align 1
  ret i8 %11
}

; Function Attrs: mustprogress nounwind uwtable
define linkonce_odr hidden void @_ZN22ImplicitExceptionTable14add_deoptimizeEj(ptr noundef nonnull align 8 dereferenceable(17) %0, i32 noundef %1) #1 comdat align 2 {
  %3 = alloca ptr, align 8
  %4 = alloca i32, align 4
  store ptr %0, ptr %3, align 8
  store i32 %1, ptr %4, align 4
  %5 = load ptr, ptr %3, align 8
  %6 = load i32, ptr %4, align 4
  %7 = load i32, ptr %4, align 4
  call void @_ZN22ImplicitExceptionTable6appendEjj(ptr noundef nonnull align 8 dereferenceable(17) %5, i32 noundef %6, i32 noundef %7)
  ret void
}

; Function Attrs: mustprogress nounwind uwtable
define linkonce_odr hidden noundef i32 @_ZN25HotSpotCompiledCodeStream7read_s4EPKc(ptr noundef nonnull align 8 dereferenceable(64) %0, ptr noundef %1) #1 comdat align 2 {
  %3 = alloca ptr, align 8
  %4 = alloca ptr, align 8
  store ptr %0, ptr %3, align 8
  store ptr %1, ptr %4, align 8
  %5 = load ptr, ptr %3, align 8
  br label %6

6:                                                ; preds = %2
  %7 = getelementptr inbounds %class.HotSpotCompiledCodeStream, ptr %5, i32 0, i32 3
  %8 = load i8, ptr %7, align 8
  %9 = trunc i8 %8 to i1
  br i1 %9, label %10, label %12

10:                                               ; preds = %6
  %11 = load ptr, ptr %4, align 8
  call void @_ZN25HotSpotCompiledCodeStream10check_dataEtPKc(ptr noundef nonnull align 8 dereferenceable(64) %5, i16 noundef zeroext 4, ptr noundef %11)
  br label %12

12:                                               ; preds = %10, %6
  %13 = call noundef i32 @_ZN25HotSpotCompiledCodeStream6get_u4Ev(ptr noundef nonnull align 8 dereferenceable(64) %5)
  ret i32 %13

14:                                               ; No predecessors!
  call void @llvm.trap()
  unreachable
}

; Function Attrs: mustprogress nounwind uwtable
define linkonce_odr hidden void @_ZN24DebugInformationRecorder13end_safepointEi(ptr noundef nonnull align 8 dereferenceable(76) %0, i32 noundef %1) #1 comdat align 2 {
  %3 = alloca ptr, align 8
  %4 = alloca i32, align 4
  store ptr %0, ptr %3, align 8
  store i32 %1, ptr %4, align 4
  %5 = load ptr, ptr %3, align 8
  %6 = load i32, ptr %4, align 4
  call void @_ZN24DebugInformationRecorder10end_scopesEib(ptr noundef nonnull align 8 dereferenceable(76) %5, i32 noundef %6, i1 noundef zeroext true)
  ret void
}

; Function Attrs: mustprogress nounwind uwtable
define linkonce_odr hidden void @_ZN13CodeInstaller12record_scopeEiP25HotSpotCompiledCodeStreamhbP8JVMCIEnv(ptr noundef nonnull align 8 dereferenceable(225) %0, i32 noundef %1, ptr noundef %2, i8 noundef zeroext %3, i1 noundef zeroext %4, ptr noundef %5) #1 comdat align 2 {
  %7 = alloca ptr, align 8
  %8 = alloca i32, align 4
  %9 = alloca ptr, align 8
  %10 = alloca i8, align 1
  %11 = alloca i8, align 1
  %12 = alloca ptr, align 8
  store ptr %0, ptr %7, align 8
  store i32 %1, ptr %8, align 4
  store ptr %2, ptr %9, align 8
  store i8 %3, ptr %10, align 1
  %13 = zext i1 %4 to i8
  store i8 %13, ptr %11, align 1
  store ptr %5, ptr %12, align 8
  %14 = load ptr, ptr %7, align 8
  %15 = load i32, ptr %8, align 4
  %16 = load ptr, ptr %9, align 8
  %17 = load i8, ptr %10, align 1
  %18 = load i8, ptr %11, align 1
  %19 = trunc i8 %18 to i1
  %20 = load ptr, ptr %12, align 8
  call void @_ZN13CodeInstaller12record_scopeEiP25HotSpotCompiledCodeStreamhbbbP8JVMCIEnv(ptr noundef nonnull align 8 dereferenceable(225) %14, i32 noundef %15, ptr noundef %16, i8 noundef zeroext %17, i1 noundef zeroext %19, i1 noundef zeroext false, i1 noundef zeroext false, ptr noundef %20)
  ret void
}

; Function Attrs: mustprogress nounwind uwtable
define linkonce_odr hidden noundef zeroext i8 @_ZN25HotSpotCompiledCodeStream7read_u1EPKc(ptr noundef nonnull align 8 dereferenceable(64) %0, ptr noundef %1) #1 comdat align 2 {
  %3 = alloca ptr, align 8
  %4 = alloca ptr, align 8
  store ptr %0, ptr %3, align 8
  store ptr %1, ptr %4, align 8
  %5 = load ptr, ptr %3, align 8
  br label %6

6:                                                ; preds = %2
  %7 = getelementptr inbounds %class.HotSpotCompiledCodeStream, ptr %5, i32 0, i32 3
  %8 = load i8, ptr %7, align 8
  %9 = trunc i8 %8 to i1
  br i1 %9, label %10, label %12

10:                                               ; preds = %6
  %11 = load ptr, ptr %4, align 8
  call void @_ZN25HotSpotCompiledCodeStream10check_dataEtPKc(ptr noundef nonnull align 8 dereferenceable(64) %5, i16 noundef zeroext 1, ptr noundef %11)
  br label %12

12:                                               ; preds = %10, %6
  %13 = call noundef zeroext i8 @_ZN25HotSpotCompiledCodeStream6get_u1Ev(ptr noundef nonnull align 8 dereferenceable(64) %5)
  ret i8 %13

14:                                               ; No predecessors!
  call void @llvm.trap()
  unreachable
}

; Function Attrs: mustprogress nounwind uwtable
define hidden void @_ZN13CodeInstaller14site_SafepointER10CodeBufferiP25HotSpotCompiledCodeStreamhP8JVMCIEnv(ptr noundef nonnull align 8 dereferenceable(225) %0, ptr noundef nonnull align 8 dereferenceable(448) %1, i32 noundef %2, ptr noundef %3, i8 noundef zeroext %4, ptr noundef %5) #1 align 2 {
  %7 = alloca ptr, align 8
  %8 = alloca ptr, align 8
  %9 = alloca i32, align 4
  %10 = alloca ptr, align 8
  %11 = alloca i8, align 1
  %12 = alloca ptr, align 8
  %13 = alloca i8, align 1
  %14 = alloca ptr, align 8
  %15 = alloca i32, align 4
  store ptr %0, ptr %7, align 8
  store ptr %1, ptr %8, align 8
  store i32 %2, ptr %9, align 4
  store ptr %3, ptr %10, align 8
  store i8 %4, ptr %11, align 1
  store ptr %5, ptr %12, align 8
  %16 = load ptr, ptr %7, align 8
  %17 = load ptr, ptr %10, align 8
  %18 = call noundef zeroext i8 @_ZN25HotSpotCompiledCodeStream7read_u1EPKc(ptr noundef nonnull align 8 dereferenceable(64) %17, ptr noundef @.str.123)
  store i8 %18, ptr %13, align 1
  %19 = load ptr, ptr %10, align 8
  %20 = load i8, ptr %13, align 1
  %21 = load ptr, ptr %12, align 8
  %22 = call noundef ptr @_ZN13CodeInstaller14create_oop_mapEP25HotSpotCompiledCodeStreamhP8JVMCIEnv(ptr noundef nonnull align 8 dereferenceable(225) %16, ptr noundef %19, i8 noundef zeroext %20, ptr noundef %21)
  store ptr %22, ptr %14, align 8
  %23 = load ptr, ptr %12, align 8
  %24 = call noundef zeroext i8 @_ZN8JVMCIEnv21has_pending_exceptionEv(ptr noundef nonnull align 8 dereferenceable(64) %23)
  %25 = icmp ne i8 %24, 0
  br i1 %25, label %26, label %27

26:                                               ; preds = %6
  br label %67

27:                                               ; preds = %6
  %28 = getelementptr inbounds %class.CodeInstaller, ptr %16, i32 0, i32 19
  %29 = load ptr, ptr %28, align 8
  %30 = load i32, ptr %9, align 4
  %31 = load ptr, ptr %14, align 8
  call void @_ZN24DebugInformationRecorder13add_safepointEiP6OopMap(ptr noundef nonnull align 8 dereferenceable(76) %29, i32 noundef %30, ptr noundef %31)
  %32 = load i32, ptr %9, align 4
  %33 = load ptr, ptr %10, align 8
  %34 = load i8, ptr %13, align 1
  %35 = load ptr, ptr %12, align 8
  call void @_ZN13CodeInstaller12record_scopeEiP25HotSpotCompiledCodeStreamhbP8JVMCIEnv(ptr noundef nonnull align 8 dereferenceable(225) %16, i32 noundef %32, ptr noundef %33, i8 noundef zeroext %34, i1 noundef zeroext true, ptr noundef %35)
  %36 = load ptr, ptr %12, align 8
  %37 = call noundef zeroext i8 @_ZN8JVMCIEnv21has_pending_exceptionEv(ptr noundef nonnull align 8 dereferenceable(64) %36)
  %38 = icmp ne i8 %37, 0
  br i1 %38, label %39, label %40

39:                                               ; preds = %27
  br label %67

40:                                               ; preds = %27
  %41 = getelementptr inbounds %class.CodeInstaller, ptr %16, i32 0, i32 19
  %42 = load ptr, ptr %41, align 8
  %43 = load i32, ptr %9, align 4
  call void @_ZN24DebugInformationRecorder13end_safepointEi(ptr noundef nonnull align 8 dereferenceable(76) %42, i32 noundef %43)
  %44 = getelementptr inbounds %class.CodeInstaller, ptr %16, i32 0, i32 7
  %45 = load i32, ptr %44, align 8
  %46 = icmp slt i32 %45, 0
  br i1 %46, label %47, label %49

47:                                               ; preds = %40
  %48 = load ptr, ptr %12, align 8
  call void (ptr, ptr, i32, ptr, ...) @_ZN8JVMCIEnv12fthrow_errorEPKciS1_z(ptr noundef nonnull align 8 dereferenceable(64) %48, ptr noundef @.str, i32 noundef 1183, ptr noundef @.str.124)
  br label %67

49:                                               ; preds = %40
  %50 = load i8, ptr %11, align 1
  %51 = zext i8 %50 to i32
  %52 = icmp eq i32 %51, 40
  br i1 %52, label %53, label %59

53:                                               ; preds = %49
  %54 = load ptr, ptr %10, align 8
  %55 = call noundef i32 @_ZN25HotSpotCompiledCodeStream7read_s4EPKc(ptr noundef nonnull align 8 dereferenceable(64) %54, ptr noundef @.str.125)
  store i32 %55, ptr %15, align 4
  %56 = getelementptr inbounds %class.CodeInstaller, ptr %16, i32 0, i32 22
  %57 = load i32, ptr %9, align 4
  %58 = load i32, ptr %15, align 4
  call void @_ZN22ImplicitExceptionTable6appendEjj(ptr noundef nonnull align 8 dereferenceable(17) %56, i32 noundef %57, i32 noundef %58)
  br label %67

59:                                               ; preds = %49
  %60 = load i8, ptr %11, align 1
  %61 = zext i8 %60 to i32
  %62 = icmp eq i32 %61, 39
  br i1 %62, label %63, label %66

63:                                               ; preds = %59
  %64 = getelementptr inbounds %class.CodeInstaller, ptr %16, i32 0, i32 22
  %65 = load i32, ptr %9, align 4
  call void @_ZN22ImplicitExceptionTable14add_deoptimizeEj(ptr noundef nonnull align 8 dereferenceable(17) %64, i32 noundef %65)
  br label %66

66:                                               ; preds = %63, %59
  br label %67

67:                                               ; preds = %66, %53, %47, %39, %26
  ret void
}