; Function Attrs: mustprogress nounwind uwtable
define hidden void @_ZN13CodeInstaller14site_SafepointER10CodeBufferiP25HotSpotCompiledCodeStreamhP8JVMCIEnv(ptr noundef nonnull align 8 dereferenceable(225) %0, ptr nocapture nonnull readnone align 8 %1, i32 noundef %2, ptr noundef %3, i8 noundef zeroext %4, ptr noundef %5) local_unnamed_addr #2 align 2 {
  %7 = getelementptr inbounds i8, ptr %3, i64 24
  %8 = load i8, ptr %7, align 8
  %9 = trunc i8 %8 to i1
  br i1 %9, label %10, label %11

10:                                               ; preds = %6
  tail call void @_ZN25HotSpotCompiledCodeStream10check_dataEtPKc(ptr noundef nonnull align 8 dereferenceable(64) %3, i16 noundef zeroext 1, ptr noundef nonnull @.str.123)
  br label %11

11:                                               ; preds = %10, %6
  %12 = getelementptr inbounds i8, ptr %3, i64 16
  %13 = load ptr, ptr %12, align 8
  %14 = getelementptr inbounds i8, ptr %13, i64 1
  %15 = getelementptr inbounds i8, ptr %3, i64 8
  %16 = load ptr, ptr %15, align 8
  %17 = getelementptr inbounds i8, ptr %16, i64 12
  %18 = getelementptr inbounds i8, ptr %16, i64 8
  %19 = load i32, ptr %18, align 8
  %20 = zext i32 %19 to i64
  %21 = getelementptr inbounds i8, ptr %17, i64 %20
  %22 = icmp ugt ptr %14, %21
  br i1 %22, label %23, label %_ZN25HotSpotCompiledCodeStream7read_u1EPKc.exit

23:                                               ; preds = %11
  %24 = load ptr, ptr %16, align 8
  %25 = icmp eq ptr %24, null
  br i1 %25, label %30, label %26

26:                                               ; preds = %23
  %27 = getelementptr inbounds i8, ptr %24, i64 8
  %28 = load i32, ptr %27, align 8
  %29 = icmp eq i32 %28, 0
  br i1 %29, label %30, label %37

30:                                               ; preds = %26, %23
  %31 = load ptr, ptr @tty, align 8
  tail call void @_ZNK25HotSpotCompiledCodeStream11dump_bufferEP12outputStream(ptr noundef nonnull align 8 dereferenceable(64) %3, ptr noundef %31)
  %32 = load ptr, ptr @g_assert_poison, align 8
  store i8 88, ptr %32, align 1
  %33 = getelementptr inbounds i8, ptr %3, i64 56
  %34 = load ptr, ptr %33, align 8
  %35 = load ptr, ptr %12, align 8
  %36 = ptrtoint ptr %35 to i64
  tail call void (i32, ptr, i32, ptr, ...) @_Z12report_fatal11VMErrorTypePKciS1_z(i32 noundef -536870912, ptr noundef nonnull @.str, i32 noundef 139, ptr noundef nonnull @.str.17, ptr noundef %34, i32 noundef 1, i64 noundef %36) #11
  unreachable

37:                                               ; preds = %26
  store ptr %24, ptr %15, align 8
  %38 = getelementptr inbounds i8, ptr %24, i64 12
  store ptr %38, ptr %12, align 8
  br label %_ZN25HotSpotCompiledCodeStream7read_u1EPKc.exit

_ZN25HotSpotCompiledCodeStream7read_u1EPKc.exit:  ; preds = %11, %37
  %39 = phi ptr [ %13, %11 ], [ %38, %37 ]
  %40 = load i8, ptr %39, align 1
  %41 = getelementptr inbounds i8, ptr %39, i64 1
  store ptr %41, ptr %12, align 8
  %42 = tail call noundef ptr @_ZN13CodeInstaller14create_oop_mapEP25HotSpotCompiledCodeStreamhP8JVMCIEnv(ptr noundef nonnull align 8 dereferenceable(225) %0, ptr noundef nonnull %3, i8 noundef zeroext %40, ptr noundef %5)
  %43 = tail call noundef zeroext i8 @_ZN8JVMCIEnv21has_pending_exceptionEv(ptr noundef nonnull align 8 dereferenceable(64) %5) #10
  %.not = icmp eq i8 %43, 0
  br i1 %.not, label %44, label %91

44:                                               ; preds = %_ZN25HotSpotCompiledCodeStream7read_u1EPKc.exit
  %45 = getelementptr inbounds i8, ptr %0, i64 160
  %46 = load ptr, ptr %45, align 8
  tail call void @_ZN24DebugInformationRecorder13add_safepointEiP6OopMap(ptr noundef nonnull align 8 dereferenceable(76) %46, i32 noundef %2, ptr noundef %42) #10
  tail call void @_ZN13CodeInstaller12record_scopeEiP25HotSpotCompiledCodeStreamhbbbP8JVMCIEnv(ptr noundef nonnull align 8 dereferenceable(225) %0, i32 noundef %2, ptr noundef nonnull %3, i8 noundef zeroext %40, i1 noundef zeroext true, i1 noundef zeroext false, i1 noundef zeroext false, ptr noundef nonnull %5)
  %47 = tail call noundef zeroext i8 @_ZN8JVMCIEnv21has_pending_exceptionEv(ptr noundef nonnull align 8 dereferenceable(64) %5) #10
  %.not20 = icmp eq i8 %47, 0
  br i1 %.not20, label %48, label %91

48:                                               ; preds = %44
  %49 = load ptr, ptr %45, align 8
  tail call void @_ZN24DebugInformationRecorder10end_scopesEib(ptr noundef nonnull align 8 dereferenceable(76) %49, i32 noundef %2, i1 noundef zeroext true) #10
  %50 = getelementptr inbounds i8, ptr %0, i64 104
  %51 = load i32, ptr %50, align 8
  %52 = icmp slt i32 %51, 0
  br i1 %52, label %53, label %54

53:                                               ; preds = %48
  tail call void (ptr, ptr, i32, ptr, ...) @_ZN8JVMCIEnv12fthrow_errorEPKciS1_z(ptr noundef nonnull align 8 dereferenceable(64) %5, ptr noundef nonnull @.str, i32 noundef 1183, ptr noundef nonnull @.str.124) #10
  br label %91

54:                                               ; preds = %48
  switch i8 %4, label %91 [
    i8 40, label %55
    i8 39, label %89
  ]

55:                                               ; preds = %54
  %56 = load i8, ptr %7, align 8
  %57 = trunc i8 %56 to i1
  br i1 %57, label %58, label %59

58:                                               ; preds = %55
  tail call void @_ZN25HotSpotCompiledCodeStream10check_dataEtPKc(ptr noundef nonnull align 8 dereferenceable(64) %3, i16 noundef zeroext 4, ptr noundef nonnull @.str.125)
  br label %59

59:                                               ; preds = %58, %55
  %60 = load ptr, ptr %12, align 8
  %61 = getelementptr inbounds i8, ptr %60, i64 4
  %62 = load ptr, ptr %15, align 8
  %63 = getelementptr inbounds i8, ptr %62, i64 12
  %64 = getelementptr inbounds i8, ptr %62, i64 8
  %65 = load i32, ptr %64, align 8
  %66 = zext i32 %65 to i64
  %67 = getelementptr inbounds i8, ptr %63, i64 %66
  %68 = icmp ugt ptr %61, %67
  br i1 %68, label %69, label %_ZN25HotSpotCompiledCodeStream7read_s4EPKc.exit

69:                                               ; preds = %59
  %70 = load ptr, ptr %62, align 8
  %71 = icmp eq ptr %70, null
  br i1 %71, label %76, label %72

72:                                               ; preds = %69
  %73 = getelementptr inbounds i8, ptr %70, i64 8
  %74 = load i32, ptr %73, align 8
  %75 = icmp ult i32 %74, 4
  br i1 %75, label %76, label %83

76:                                               ; preds = %72, %69
  %77 = load ptr, ptr @tty, align 8
  tail call void @_ZNK25HotSpotCompiledCodeStream11dump_bufferEP12outputStream(ptr noundef nonnull align 8 dereferenceable(64) %3, ptr noundef %77)
  %78 = load ptr, ptr @g_assert_poison, align 8
  store i8 88, ptr %78, align 1
  %79 = getelementptr inbounds i8, ptr %3, i64 56
  %80 = load ptr, ptr %79, align 8
  %81 = load ptr, ptr %12, align 8
  %82 = ptrtoint ptr %81 to i64
  tail call void (i32, ptr, i32, ptr, ...) @_Z12report_fatal11VMErrorTypePKciS1_z(i32 noundef -536870912, ptr noundef nonnull @.str, i32 noundef 139, ptr noundef nonnull @.str.17, ptr noundef %80, i32 noundef 4, i64 noundef %82) #11
  unreachable

83:                                               ; preds = %72
  store ptr %70, ptr %15, align 8
  %84 = getelementptr inbounds i8, ptr %70, i64 12
  store ptr %84, ptr %12, align 8
  br label %_ZN25HotSpotCompiledCodeStream7read_s4EPKc.exit

_ZN25HotSpotCompiledCodeStream7read_s4EPKc.exit:  ; preds = %59, %83
  %85 = phi ptr [ %60, %59 ], [ %84, %83 ]
  %86 = load i32, ptr %85, align 4
  %87 = getelementptr inbounds i8, ptr %85, i64 4
  store ptr %87, ptr %12, align 8
  %88 = getelementptr inbounds i8, ptr %0, i64 200
  tail call void @_ZN22ImplicitExceptionTable6appendEjj(ptr noundef nonnull align 8 dereferenceable(17) %88, i32 noundef %2, i32 noundef %86) #10
  br label %91

89:                                               ; preds = %54
  %90 = getelementptr inbounds i8, ptr %0, i64 200
  tail call void @_ZN22ImplicitExceptionTable6appendEjj(ptr noundef nonnull align 8 dereferenceable(17) %90, i32 noundef %2, i32 noundef %2) #10
  br label %91

91:                                               ; preds = %54, %89, %44, %_ZN25HotSpotCompiledCodeStream7read_u1EPKc.exit, %_ZN25HotSpotCompiledCodeStream7read_s4EPKc.exit, %53
  ret void
}